; Function Attrs: nounwind uwtable
define internal fastcc void @mi_segment_commit_mask(ptr noundef %0, i1 noundef zeroext %1, ptr noundef %2, i64 noundef %3, ptr noundef nonnull writeonly captures(none) %4, ptr noundef nonnull writeonly captures(none) %5, ptr noundef nonnull writeonly captures(none) initializes((0, 128)) %6) unnamed_addr #5 {
  tail call void @llvm.memset.p0.i64(ptr noundef nonnull align 8 dereferenceable(128) %6, i8 0, i64 128, i1 false), !tbaa !3
  %8 = add i64 %3, -67108865
  %or.cond = icmp ult i64 %8, -67108864
  br i1 %or.cond, label %mi_commit_mask_create.exit, label %9

9:                                                ; preds = %7
  %10 = getelementptr inbounds nuw i8, ptr %0, i64 344
  %11 = load i32, ptr %10, align 8, !tbaa !38
  %12 = icmp eq i32 %11, 1
  br i1 %12, label %mi_commit_mask_create.exit, label %13

13:                                               ; preds = %9
  %14 = getelementptr i8, ptr %0, i64 336
  %.val = load i64, ptr %14, align 8, !tbaa !45
  %15 = shl i64 %.val, 16
  %16 = getelementptr i8, ptr %0, i64 328
  %.val59 = load i64, ptr %16, align 8, !tbaa !47
  %17 = shl i64 %.val59, 16
  %18 = getelementptr inbounds nuw i8, ptr %0, i64 %17
  %.not = icmp ult ptr %2, %18
  br i1 %.not, label %19, label %mi_commit_mask_create.exit

19:                                               ; preds = %13
  %20 = ptrtoint ptr %2 to i64
  %21 = ptrtoint ptr %0 to i64
  %22 = sub i64 %20, %21
  br i1 %1, label %23, label %28

23:                                               ; preds = %19
  %24 = add i64 %22, 65535
  %25 = and i64 %24, -65536
  %26 = add i64 %22, %3
  %27 = and i64 %26, -65536
  br label %33

28:                                               ; preds = %19
  %29 = and i64 %22, -2097152
  %30 = add nuw nsw i64 %3, 2097151
  %31 = add i64 %30, %22
  %32 = and i64 %31, -2097152
  br label %33

33:                                               ; preds = %28, %23
  %.049 = phi i64 [ %27, %23 ], [ %32, %28 ]
  %.0 = phi i64 [ %25, %23 ], [ %29, %28 ]
  %.not56.not = icmp ult i64 %22, %15
  %34 = tail call i64 @llvm.umax.i64(i64 %.0, i64 %15)
  %.1 = select i1 %.not56.not, i64 %.0, i64 %34
  %.150 = tail call i64 @llvm.umin.i64(i64 %.049, i64 %17)
  %35 = getelementptr inbounds nuw i8, ptr %0, i64 %.1
  store ptr %35, ptr %4, align 8, !tbaa !93
  %36 = tail call i64 @llvm.usub.sat.i64(i64 %.150, i64 %.1)
  store i64 %36, ptr %5, align 8, !tbaa !3
  %.not57 = icmp ugt i64 %.150, %.1
  br i1 %.not57, label %37, label %mi_commit_mask_create.exit

37:                                               ; preds = %33
  %38 = lshr exact i64 %.1, 16
  %39 = lshr exact i64 %36, 16
  %40 = add nuw nsw i64 %39, %38
  %41 = icmp samesign ugt i64 %40, 1024
  br i1 %41, label %42, label %43

42:                                               ; preds = %37
  tail call void (ptr, ...) @_mi_warning_message(ptr noundef nonnull @.str, i64 noundef %38, i64 noundef %39, i64 noundef %.1, i64 noundef %.150, ptr noundef %2, i64 noundef %3, i64 noundef %36) #9
  br label %43

43:                                               ; preds = %42, %37
  switch i64 %39, label %.lr.ph.i [
    i64 1024, label %44
    i64 0, label %45
  ]

44:                                               ; preds = %43
  tail call void @llvm.memset.p0.i64(ptr noundef nonnull align 8 dereferenceable(128) %6, i8 -1, i64 128, i1 false), !tbaa !3
  br label %mi_commit_mask_create.exit

45:                                               ; preds = %43
  tail call void @llvm.memset.p0.i64(ptr noundef nonnull align 8 dereferenceable(128) %6, i8 0, i64 128, i1 false), !tbaa !3
  br label %mi_commit_mask_create.exit

.lr.ph.i:                                         ; preds = %43
  tail call void @llvm.memset.p0.i64(ptr noundef nonnull align 8 dereferenceable(128) %6, i8 0, i64 128, i1 false), !tbaa !3
  %46 = lshr i64 %.1, 22
  %47 = and i64 %38, 63
  br label %48

48:                                               ; preds = %48, %.lr.ph.i
  %.028.i = phi i64 [ %39, %.lr.ph.i ], [ %56, %48 ]
  %.02127.i = phi i64 [ %46, %.lr.ph.i ], [ %57, %48 ]
  %.02226.i = phi i64 [ %47, %.lr.ph.i ], [ 0, %48 ]
  %49 = sub nuw nsw i64 64, %.02226.i
  %50 = tail call i64 @llvm.umin.i64(i64 %.028.i, i64 %49)
  %51 = icmp samesign ugt i64 %50, 63
  %notmask.i = shl nsw i64 -1, %50
  %52 = xor i64 %notmask.i, -1
  %53 = shl i64 %52, %.02226.i
  %54 = select i1 %51, i64 -1, i64 %53
  %55 = getelementptr inbounds nuw [16 x i64], ptr %6, i64 0, i64 %.02127.i
  store i64 %54, ptr %55, align 8, !tbaa !3
  %56 = sub i64 %.028.i, %50
  %57 = add i64 %.02127.i, 1
  %.not.i = icmp eq i64 %56, 0
  br i1 %.not.i, label %mi_commit_mask_create.exit, label %48, !llvm.loop !98

mi_commit_mask_create.exit:                       ; preds = %48, %45, %44, %13, %33, %7, %9
  ret void
}